; Function Attrs: mustprogress nofree norecurse nosync nounwind willreturn memory(read, argmem: readwrite, inaccessiblemem: none) uwtable
define noundef zeroext i16 @_ZN6icu_7524FCDUTF8CollationIterator23handleGetTrailSurrogateEv(ptr nocapture noundef nonnull align 8 dereferenceable(496) %this) unnamed_addr #10 align 2 {
entry:
  %state = getelementptr inbounds i8, ptr %this, i64 408
  %0 = load i32, ptr %state, align 8
  %cmp.not = icmp eq i32 %0, 3
  br i1 %cmp.not, label %if.end, label %return

if.end:                                           ; preds = %entry
  %pos = getelementptr inbounds i8, ptr %this, i64 400
  %1 = load i32, ptr %pos, align 8
  %fUnion.i.i.i.i = getelementptr inbounds i8, ptr %this, i64 440
  %2 = load i16, ptr %fUnion.i.i.i.i, align 8
  %cmp.i.i.i.i = icmp slt i16 %2, 0
  %3 = ashr i16 %2, 5
  %shr.i.i.i.i = sext i16 %3 to i32
  %fLength.i.i.i = getelementptr inbounds i8, ptr %this, i64 444
  %4 = load i32, ptr %fLength.i.i.i, align 4
  %cond.i.i.i = select i1 %cmp.i.i.i.i, i32 %4, i32 %shr.i.i.i.i
  %cmp.i.i = icmp ugt i32 %cond.i.i.i, %1
  br i1 %cmp.i.i, label %_ZNK6icu_7513UnicodeStringixEi.exit, label %return

_ZNK6icu_7513UnicodeStringixEi.exit:              ; preds = %if.end
  %5 = and i16 %2, 2
  %tobool.not.i.i.i = icmp eq i16 %5, 0
  %fBuffer.i.i.i = getelementptr inbounds i8, ptr %this, i64 442
  %fArray.i.i.i = getelementptr inbounds i8, ptr %this, i64 456
  %6 = load ptr, ptr %fArray.i.i.i, align 8
  %cond.i2.i.i = select i1 %tobool.not.i.i.i, ptr %6, ptr %fBuffer.i.i.i
  %idxprom.i.i = sext i32 %1 to i64
  %arrayidx.i.i = getelementptr inbounds i16, ptr %cond.i2.i.i, i64 %idxprom.i.i
  %7 = load i16, ptr %arrayidx.i.i, align 2
  %8 = and i16 %7, -1024
  %cmp2 = icmp eq i16 %8, -9216
  br i1 %cmp2, label %if.then3, label %return

if.then3:                                         ; preds = %_ZNK6icu_7513UnicodeStringixEi.exit
  %inc = add nuw nsw i32 %1, 1
  store i32 %inc, ptr %pos, align 8
  br label %return

return:                                           ; preds = %if.end, %_ZNK6icu_7513UnicodeStringixEi.exit, %if.then3, %entry
  %retval.0 = phi i16 [ 0, %entry ], [ %7, %if.then3 ], [ %7, %_ZNK6icu_7513UnicodeStringixEi.exit ], [ -1, %if.end ]
  ret i16 %retval.0
}